target datalayout = "e-m:e-p270:32:32-p271:32:32-p272:64:64-i64:64-i128:128-f80:128-n8:16:32:64-S128"
target triple = "x86_64-unknown-linux-gnu"

%"class.icu_75::ChoiceFormat" = type { %"class.icu_75::NumberFormat.base", i32, %"class.icu_75::MessagePattern" }
%"class.icu_75::NumberFormat.base" = type { %"class.icu_75::Format.base", i8, i32, i32, i32, i32, i8, i8, [4 x i16], i32 }
%"class.icu_75::Format.base" = type <{ %"class.icu_75::UObject", [157 x i8], [157 x i8] }>
%"class.icu_75::UObject" = type { ptr }
%"class.icu_75::MessagePattern" = type <{ %"class.icu_75::UObject", i32, [4 x i8], %"class.icu_75::UnicodeString", ptr, ptr, i32, [4 x i8], ptr, ptr, i32, i8, i8, i8, i8 }>
%"class.icu_75::UnicodeString" = type { %"class.icu_75::Replaceable", %"union.icu_75::UnicodeString::StackBufferOrFields" }
%"class.icu_75::Replaceable" = type { %"class.icu_75::UObject" }
%"union.icu_75::UnicodeString::StackBufferOrFields" = type { %struct.anon.0, [32 x i8] }
%struct.anon.0 = type { i16, i32, i32, ptr }

; Function Attrs: mustprogress uwtable
define void @_ZN6icu_7512ChoiceFormatC2ERKS0_(ptr noundef nonnull align 8 dereferenceable(488) %this, ptr noundef nonnull align 8 dereferenceable(488) %that) unnamed_addr #1 align 2 personality ptr @__gxx_personality_v0 {
entry:
  %this.addr = alloca ptr, align 8
  %that.addr = alloca ptr, align 8
  %exn.slot = alloca ptr, align 8
  %ehselector.slot = alloca i32, align 4
  store ptr %this, ptr %this.addr, align 8
  store ptr %that, ptr %that.addr, align 8
  %this1 = load ptr, ptr %this.addr, align 8
  %0 = load ptr, ptr %that.addr, align 8
  call void @_ZN6icu_7512NumberFormatC2ERKS0_(ptr noundef nonnull align 8 dereferenceable(356) %this1, ptr noundef nonnull align 8 dereferenceable(356) %0)
  store ptr getelementptr inbounds ({ [49 x ptr] }, ptr @_ZTVN6icu_7512ChoiceFormatE, i32 0, i32 0, i32 2), ptr %this1, align 8
  %constructorErrorCode = getelementptr inbounds %"class.icu_75::ChoiceFormat", ptr %this1, i32 0, i32 1
  %1 = load ptr, ptr %that.addr, align 8
  %constructorErrorCode2 = getelementptr inbounds %"class.icu_75::ChoiceFormat", ptr %1, i32 0, i32 1
  %2 = load i32, ptr %constructorErrorCode2, align 4
  store i32 %2, ptr %constructorErrorCode, align 4
  %msgPattern = getelementptr inbounds %"class.icu_75::ChoiceFormat", ptr %this1, i32 0, i32 2
  %3 = load ptr, ptr %that.addr, align 8
  %msgPattern3 = getelementptr inbounds %"class.icu_75::ChoiceFormat", ptr %3, i32 0, i32 2
  invoke void @_ZN6icu_7514MessagePatternC1ERKS0_(ptr noundef nonnull align 8 dereferenceable(127) %msgPattern, ptr noundef nonnull align 8 dereferenceable(127) %msgPattern3)
          to label %invoke.cont unwind label %lpad

invoke.cont:                                      ; preds = %entry
  ret void

lpad:                                             ; preds = %entry
  %4 = landingpad { ptr, i32 }
          cleanup
  %5 = extractvalue { ptr, i32 } %4, 0
  store ptr %5, ptr %exn.slot, align 8
  %6 = extractvalue { ptr, i32 } %4, 1
  store i32 %6, ptr %ehselector.slot, align 4
  call void @_ZN6icu_7512NumberFormatD2Ev(ptr noundef nonnull align 8 dereferenceable(356) %this1) #5
  br label %eh.resume

eh.resume:                                        ; preds = %lpad
  %exn = load ptr, ptr %exn.slot, align 8
  %sel = load i32, ptr %ehselector.slot, align 4
  %lpad.val = insertvalue { ptr, i32 } poison, ptr %exn, 0
  %lpad.val4 = insertvalue { ptr, i32 } %lpad.val, i32 %sel, 1
  resume { ptr, i32 } %lpad.val4
}