; Function Attrs: mustprogress uwtable
define void @_ZN6icu_7512ChoiceFormatC2ERKS0_(ptr noundef nonnull align 8 dereferenceable(488) %this, ptr noundef nonnull align 8 dereferenceable(488) %that) unnamed_addr #1 align 2 personality ptr @__gxx_personality_v0 {
entry:
  tail call void @_ZN6icu_7512NumberFormatC2ERKS0_(ptr noundef nonnull align 8 dereferenceable(356) %this, ptr noundef nonnull align 8 dereferenceable(356) %that)
  store ptr getelementptr inbounds ({ [49 x ptr] }, ptr @_ZTVN6icu_7512ChoiceFormatE, i64 0, i32 0, i64 2), ptr %this, align 8
  %constructorErrorCode = getelementptr inbounds i8, ptr %this, i64 356
  %constructorErrorCode2 = getelementptr inbounds i8, ptr %that, i64 356
  %0 = load i32, ptr %constructorErrorCode2, align 4
  store i32 %0, ptr %constructorErrorCode, align 4
  %msgPattern = getelementptr inbounds i8, ptr %this, i64 360
  %msgPattern3 = getelementptr inbounds i8, ptr %that, i64 360
  invoke void @_ZN6icu_7514MessagePatternC1ERKS0_(ptr noundef nonnull align 8 dereferenceable(127) %msgPattern, ptr noundef nonnull align 8 dereferenceable(127) %msgPattern3)
          to label %invoke.cont unwind label %lpad

invoke.cont:                                      ; preds = %entry
  ret void

lpad:                                             ; preds = %entry
  %1 = landingpad { ptr, i32 }
          cleanup
  tail call void @_ZN6icu_7512NumberFormatD2Ev(ptr noundef nonnull align 8 dereferenceable(356) %this) #9
  resume { ptr, i32 } %1
}